target datalayout = "e-m:e-p270:32:32-p271:32:32-p272:64:64-i64:64-i128:128-f80:128-n8:16:32:64-S128"
target triple = "x86_64-pc-linux-gnu"

%"struct.std::pair" = type { i64, i64 }

@_ZN11OpenImageIO6v3_1_08farmhash7inlinedL2k0E = internal constant i64 -4348849565147123417, align 8
@_ZN11OpenImageIO6v3_1_08farmhash7inlinedL2k1E = internal constant i64 -5435081209227447693, align 8

; Function Attrs: mustprogress nounwind uwtable
define linkonce_odr void @_ZNSt4pairImmEC2ImmTnNSt9enable_ifIXaaclsr5_PCCPE18_ConstructiblePairIT_T0_EEclsr5_PCCPE26_ImplicitlyConvertiblePairIS3_S4_EEEbE4typeELb1EEERKmS8_(ptr noundef nonnull align 8 dereferenceable(16) %0, ptr noundef nonnull align 8 dereferenceable(8) %1, ptr noundef nonnull align 8 dereferenceable(8) %2) unnamed_addr #9 comdat align 2 {
  %4 = alloca ptr, align 8
  %5 = alloca ptr, align 8
  %6 = alloca ptr, align 8
  store ptr %0, ptr %4, align 8, !tbaa !22
  store ptr %1, ptr %5, align 8, !tbaa !26
  store ptr %2, ptr %6, align 8, !tbaa !26
  %7 = load ptr, ptr %4, align 8
  %8 = getelementptr inbounds nuw %"struct.std::pair", ptr %7, i32 0, i32 0
  %9 = load ptr, ptr %5, align 8, !tbaa !26
  %10 = load i64, ptr %9, align 8, !tbaa !8
  store i64 %10, ptr %8, align 8, !tbaa !16
  %11 = getelementptr inbounds nuw %"struct.std::pair", ptr %7, i32 0, i32 1
  %12 = load ptr, ptr %6, align 8, !tbaa !26
  %13 = load i64, ptr %12, align 8, !tbaa !8
  store i64 %13, ptr %11, align 8, !tbaa !18
  ret void
}

; Function Attrs: mustprogress nounwind uwtable
define linkonce_odr void @_ZNSt4pairImmEC2ImmTnNSt9enable_ifIXaaclsr5_PCCPE22_MoveConstructiblePairIT_T0_EEclsr5_PCCPE30_ImplicitlyMoveConvertiblePairIS3_S4_EEEbE4typeELb1EEEOS3_OS4_(ptr noundef nonnull align 8 dereferenceable(16) %0, ptr noundef nonnull align 8 dereferenceable(8) %1, ptr noundef nonnull align 8 dereferenceable(8) %2) unnamed_addr #9 comdat align 2 {
  %4 = alloca ptr, align 8
  %5 = alloca ptr, align 8
  %6 = alloca ptr, align 8
  store ptr %0, ptr %4, align 8, !tbaa !22
  store ptr %1, ptr %5, align 8, !tbaa !26
  store ptr %2, ptr %6, align 8, !tbaa !26
  %7 = load ptr, ptr %4, align 8
  %8 = getelementptr inbounds nuw %"struct.std::pair", ptr %7, i32 0, i32 0
  %9 = load ptr, ptr %5, align 8, !tbaa !26
  %10 = load i64, ptr %9, align 8, !tbaa !8
  store i64 %10, ptr %8, align 8, !tbaa !16
  %11 = getelementptr inbounds nuw %"struct.std::pair", ptr %7, i32 0, i32 1
  %12 = load ptr, ptr %6, align 8, !tbaa !26
  %13 = load i64, ptr %12, align 8, !tbaa !8
  store i64 %13, ptr %11, align 8, !tbaa !18
  ret void
}

; Function Attrs: inlinehint mustprogress nounwind uwtable
define linkonce_odr hidden noundef i64 @_ZN11OpenImageIO6v3_1_08farmhash7inlined7Fetch64EPKc(ptr noundef %0) #7 comdat {
  %2 = alloca ptr, align 8
  %3 = alloca i8, align 1
  %4 = alloca i8, align 1
  %5 = alloca i8, align 1
  %6 = alloca i8, align 1
  %7 = alloca i8, align 1
  %8 = alloca i8, align 1
  %9 = alloca i8, align 1
  %10 = alloca i8, align 1
  store ptr %0, ptr %2, align 8, !tbaa !3
  call void @llvm.lifetime.start.p0(i64 1, ptr %3) #3
  %11 = load ptr, ptr %2, align 8, !tbaa !3
  %12 = getelementptr inbounds i8, ptr %11, i64 0
  %13 = load i8, ptr %12, align 1, !tbaa !14
  store i8 %13, ptr %3, align 1, !tbaa !14
  call void @llvm.lifetime.start.p0(i64 1, ptr %4) #3
  %14 = load ptr, ptr %2, align 8, !tbaa !3
  %15 = getelementptr inbounds i8, ptr %14, i64 1
  %16 = load i8, ptr %15, align 1, !tbaa !14
  store i8 %16, ptr %4, align 1, !tbaa !14
  call void @llvm.lifetime.start.p0(i64 1, ptr %5) #3
  %17 = load ptr, ptr %2, align 8, !tbaa !3
  %18 = getelementptr inbounds i8, ptr %17, i64 2
  %19 = load i8, ptr %18, align 1, !tbaa !14
  store i8 %19, ptr %5, align 1, !tbaa !14
  call void @llvm.lifetime.start.p0(i64 1, ptr %6) #3
  %20 = load ptr, ptr %2, align 8, !tbaa !3
  %21 = getelementptr inbounds i8, ptr %20, i64 3
  %22 = load i8, ptr %21, align 1, !tbaa !14
  store i8 %22, ptr %6, align 1, !tbaa !14
  call void @llvm.lifetime.start.p0(i64 1, ptr %7) #3
  %23 = load ptr, ptr %2, align 8, !tbaa !3
  %24 = getelementptr inbounds i8, ptr %23, i64 4
  %25 = load i8, ptr %24, align 1, !tbaa !14
  store i8 %25, ptr %7, align 1, !tbaa !14
  call void @llvm.lifetime.start.p0(i64 1, ptr %8) #3
  %26 = load ptr, ptr %2, align 8, !tbaa !3
  %27 = getelementptr inbounds i8, ptr %26, i64 5
  %28 = load i8, ptr %27, align 1, !tbaa !14
  store i8 %28, ptr %8, align 1, !tbaa !14
  call void @llvm.lifetime.start.p0(i64 1, ptr %9) #3
  %29 = load ptr, ptr %2, align 8, !tbaa !3
  %30 = getelementptr inbounds i8, ptr %29, i64 6
  %31 = load i8, ptr %30, align 1, !tbaa !14
  store i8 %31, ptr %9, align 1, !tbaa !14
  call void @llvm.lifetime.start.p0(i64 1, ptr %10) #3
  %32 = load ptr, ptr %2, align 8, !tbaa !3
  %33 = getelementptr inbounds i8, ptr %32, i64 7
  %34 = load i8, ptr %33, align 1, !tbaa !14
  store i8 %34, ptr %10, align 1, !tbaa !14
  %35 = load i8, ptr %3, align 1, !tbaa !14
  %36 = zext i8 %35 to i64
  %37 = load i8, ptr %4, align 1, !tbaa !14
  %38 = zext i8 %37 to i64
  %39 = shl i64 %38, 8
  %40 = or i64 %36, %39
  %41 = load i8, ptr %5, align 1, !tbaa !14
  %42 = zext i8 %41 to i64
  %43 = shl i64 %42, 16
  %44 = or i64 %40, %43
  %45 = load i8, ptr %6, align 1, !tbaa !14
  %46 = zext i8 %45 to i64
  %47 = shl i64 %46, 24
  %48 = or i64 %44, %47
  %49 = load i8, ptr %7, align 1, !tbaa !14
  %50 = zext i8 %49 to i64
  %51 = shl i64 %50, 32
  %52 = or i64 %48, %51
  %53 = load i8, ptr %8, align 1, !tbaa !14
  %54 = zext i8 %53 to i64
  %55 = shl i64 %54, 40
  %56 = or i64 %52, %55
  %57 = load i8, ptr %9, align 1, !tbaa !14
  %58 = zext i8 %57 to i64
  %59 = shl i64 %58, 48
  %60 = or i64 %56, %59
  %61 = load i8, ptr %10, align 1, !tbaa !14
  %62 = zext i8 %61 to i64
  %63 = shl i64 %62, 56
  %64 = or i64 %60, %63
  call void @llvm.lifetime.end.p0(i64 1, ptr %10) #3
  call void @llvm.lifetime.end.p0(i64 1, ptr %9) #3
  call void @llvm.lifetime.end.p0(i64 1, ptr %8) #3
  call void @llvm.lifetime.end.p0(i64 1, ptr %7) #3
  call void @llvm.lifetime.end.p0(i64 1, ptr %6) #3
  call void @llvm.lifetime.end.p0(i64 1, ptr %5) #3
  call void @llvm.lifetime.end.p0(i64 1, ptr %4) #3
  call void @llvm.lifetime.end.p0(i64 1, ptr %3) #3
  ret i64 %64
}

; Function Attrs: inlinehint mustprogress uwtable
define linkonce_odr hidden { i64, i64 } @_ZN11OpenImageIO6v3_1_08farmhash10farmhashcc11CityHash128EPKcm(ptr noundef %0, i64 noundef %1) #5 comdat {
  %3 = alloca %"struct.std::pair", align 8
  %4 = alloca ptr, align 8
  %5 = alloca i64, align 8
  %6 = alloca %"struct.std::pair", align 8
  %7 = alloca i64, align 8
  %8 = alloca i64, align 8
  %9 = alloca %"struct.std::pair", align 8
  store ptr %0, ptr %4, align 8, !tbaa !3
  store i64 %1, ptr %5, align 8, !tbaa !8
  %10 = load i64, ptr %5, align 8, !tbaa !8
  %11 = icmp uge i64 %10, 16
  call void @llvm.lifetime.start.p0(i64 8, ptr %7) #3
  call void @llvm.lifetime.start.p0(i64 8, ptr %8) #3
  br i1 %11, label %12, label %32

12:                                               ; preds = %2
  %13 = load ptr, ptr %4, align 8, !tbaa !3
  %14 = getelementptr inbounds i8, ptr %13, i64 16
  %15 = load i64, ptr %5, align 8, !tbaa !8
  %16 = sub i64 %15, 16
  %17 = load ptr, ptr %4, align 8, !tbaa !3
  %18 = call noundef i64 @_ZN11OpenImageIO6v3_1_08farmhash7inlined7Fetch64EPKc(ptr noundef %17)
  store i64 %18, ptr %7, align 8, !tbaa !8
  %19 = load ptr, ptr %4, align 8, !tbaa !3
  %20 = getelementptr inbounds i8, ptr %19, i64 8
  %21 = call noundef i64 @_ZN11OpenImageIO6v3_1_08farmhash7inlined7Fetch64EPKc(ptr noundef %20)
  %22 = add i64 %21, -4348849565147123417
  store i64 %22, ptr %8, align 8, !tbaa !8
  call void @_ZNSt4pairImmEC2ImmTnNSt9enable_ifIXaaclsr5_PCCPE22_MoveConstructiblePairIT_T0_EEclsr5_PCCPE30_ImplicitlyMoveConvertiblePairIS3_S4_EEEbE4typeELb1EEEOS3_OS4_(ptr noundef nonnull align 8 dereferenceable(16) %6, ptr noundef nonnull align 8 dereferenceable(8) %7, ptr noundef nonnull align 8 dereferenceable(8) %8)
  %23 = getelementptr inbounds nuw { i64, i64 }, ptr %6, i32 0, i32 0
  %24 = load i64, ptr %23, align 8
  %25 = getelementptr inbounds nuw { i64, i64 }, ptr %6, i32 0, i32 1
  %26 = load i64, ptr %25, align 8
  %27 = call { i64, i64 } @_ZN11OpenImageIO6v3_1_08farmhash10farmhashcc19CityHash128WithSeedEPKcmSt4pairImmE(ptr noundef %14, i64 noundef %16, i64 %24, i64 %26)
  %28 = getelementptr inbounds nuw { i64, i64 }, ptr %3, i32 0, i32 0
  %29 = extractvalue { i64, i64 } %27, 0
  store i64 %29, ptr %28, align 8
  %30 = getelementptr inbounds nuw { i64, i64 }, ptr %3, i32 0, i32 1
  %31 = extractvalue { i64, i64 } %27, 1
  store i64 %31, ptr %30, align 8
  br label %44

32:                                               ; preds = %2
  %33 = load ptr, ptr %4, align 8, !tbaa !3
  %34 = load i64, ptr %5, align 8, !tbaa !8
  call void @_ZNSt4pairImmEC2ImmTnNSt9enable_ifIXaaclsr5_PCCPE18_ConstructiblePairIT_T0_EEclsr5_PCCPE26_ImplicitlyConvertiblePairIS3_S4_EEEbE4typeELb1EEERKmS8_(ptr noundef nonnull align 8 dereferenceable(16) %9, ptr noundef nonnull align 8 dereferenceable(8) @_ZN11OpenImageIO6v3_1_08farmhash7inlinedL2k0E, ptr noundef nonnull align 8 dereferenceable(8) @_ZN11OpenImageIO6v3_1_08farmhash7inlinedL2k1E)
  %35 = getelementptr inbounds nuw { i64, i64 }, ptr %9, i32 0, i32 0
  %36 = load i64, ptr %35, align 8
  %37 = getelementptr inbounds nuw { i64, i64 }, ptr %9, i32 0, i32 1
  %38 = load i64, ptr %37, align 8
  %39 = call { i64, i64 } @_ZN11OpenImageIO6v3_1_08farmhash10farmhashcc19CityHash128WithSeedEPKcmSt4pairImmE(ptr noundef %33, i64 noundef %34, i64 %36, i64 %38)
  %40 = getelementptr inbounds nuw { i64, i64 }, ptr %3, i32 0, i32 0
  %41 = extractvalue { i64, i64 } %39, 0
  store i64 %41, ptr %40, align 8
  %42 = getelementptr inbounds nuw { i64, i64 }, ptr %3, i32 0, i32 1
  %43 = extractvalue { i64, i64 } %39, 1
  store i64 %43, ptr %42, align 8
  br label %44

44:                                               ; preds = %32, %12
  call void @llvm.lifetime.end.p0(i64 8, ptr %8) #3
  call void @llvm.lifetime.end.p0(i64 8, ptr %7) #3
  %45 = load { i64, i64 }, ptr %3, align 8
  ret { i64, i64 } %45
}

; Function Attrs: inlinehint mustprogress uwtable
define linkonce_odr hidden { i64, i64 } @_ZN11OpenImageIO6v3_1_08farmhash10farmhashcc14Fingerprint128EPKcm(ptr noundef %0, i64 noundef %1) #5 comdat {
  %3 = alloca %"struct.std::pair", align 8
  %4 = alloca ptr, align 8
  %5 = alloca i64, align 8
  store ptr %0, ptr %4, align 8, !tbaa !3
  store i64 %1, ptr %5, align 8, !tbaa !8
  %6 = load ptr, ptr %4, align 8, !tbaa !3
  %7 = load i64, ptr %5, align 8, !tbaa !8
  %8 = call { i64, i64 } @_ZN11OpenImageIO6v3_1_08farmhash10farmhashcc11CityHash128EPKcm(ptr noundef %6, i64 noundef %7)
  %9 = getelementptr inbounds nuw { i64, i64 }, ptr %3, i32 0, i32 0
  %10 = extractvalue { i64, i64 } %8, 0
  store i64 %10, ptr %9, align 8
  %11 = getelementptr inbounds nuw { i64, i64 }, ptr %3, i32 0, i32 1
  %12 = extractvalue { i64, i64 } %8, 1
  store i64 %12, ptr %11, align 8
  %13 = load { i64, i64 }, ptr %3, align 8
  ret { i64, i64 } %13
}

; Function Attrs: inlinehint mustprogress uwtable
define linkonce_odr hidden { i64, i64 } @_ZN11OpenImageIO6v3_1_08farmhash7inlined14Fingerprint128EPKcm(ptr noundef %0, i64 noundef %1) #5 comdat {
  %3 = alloca %"struct.std::pair", align 8
  %4 = alloca ptr, align 8
  %5 = alloca i64, align 8
  store ptr %0, ptr %4, align 8, !tbaa !3
  store i64 %1, ptr %5, align 8, !tbaa !8
  %6 = load ptr, ptr %4, align 8, !tbaa !3
  %7 = load i64, ptr %5, align 8, !tbaa !8
  %8 = call { i64, i64 } @_ZN11OpenImageIO6v3_1_08farmhash10farmhashcc14Fingerprint128EPKcm(ptr noundef %6, i64 noundef %7)
  %9 = getelementptr inbounds nuw { i64, i64 }, ptr %3, i32 0, i32 0
  %10 = extractvalue { i64, i64 } %8, 0
  store i64 %10, ptr %9, align 8
  %11 = getelementptr inbounds nuw { i64, i64 }, ptr %3, i32 0, i32 1
  %12 = extractvalue { i64, i64 } %8, 1
  store i64 %12, ptr %11, align 8
  %13 = load { i64, i64 }, ptr %3, align 8
  ret { i64, i64 } %13
}

; Function Attrs: mustprogress uwtable
define { i64, i64 } @_ZN11OpenImageIO6v3_1_08farmhash14Fingerprint128EPKcm(ptr noundef %0, i64 noundef %1) #4 {
  %3 = alloca %"struct.std::pair", align 8
  %4 = alloca ptr, align 8
  %5 = alloca i64, align 8
  store ptr %0, ptr %4, align 8, !tbaa !3
  store i64 %1, ptr %5, align 8, !tbaa !8
  %6 = load ptr, ptr %4, align 8, !tbaa !3
  %7 = load i64, ptr %5, align 8, !tbaa !8
  %8 = call { i64, i64 } @_ZN11OpenImageIO6v3_1_08farmhash7inlined14Fingerprint128EPKcm(ptr noundef %6, i64 noundef %7)
  %9 = getelementptr inbounds nuw { i64, i64 }, ptr %3, i32 0, i32 0
  %10 = extractvalue { i64, i64 } %8, 0
  store i64 %10, ptr %9, align 8
  %11 = getelementptr inbounds nuw { i64, i64 }, ptr %3, i32 0, i32 1
  %12 = extractvalue { i64, i64 } %8, 1
  store i64 %12, ptr %11, align 8
  %13 = load { i64, i64 }, ptr %3, align 8
  ret { i64, i64 } %13
}