; Function Attrs: mustprogress uwtable
define { i64, i64 } @_ZN11OpenImageIO6v3_1_08farmhash14Fingerprint128EPKcm(ptr noundef %0, i64 noundef %1) local_unnamed_addr #3 {
  %3 = icmp ugt i64 %1, 15
  br i1 %3, label %4, label %12

4:                                                ; preds = %2
  %5 = getelementptr inbounds nuw i8, ptr %0, i64 16
  %6 = add i64 %1, -16
  %7 = load i64, ptr %0, align 1
  %8 = getelementptr inbounds nuw i8, ptr %0, i64 8
  %9 = load i64, ptr %8, align 1
  %10 = add i64 %9, -4348849565147123417
  %11 = tail call { i64, i64 } @_ZN11OpenImageIO6v3_1_08farmhash10farmhashcc19CityHash128WithSeedEPKcmSt4pairImmE(ptr noundef nonnull %5, i64 noundef %6, i64 %7, i64 %10)
  br label %_ZN11OpenImageIO6v3_1_08farmhash7inlined14Fingerprint128EPKcm.exit

12:                                               ; preds = %2
  %13 = tail call { i64, i64 } @_ZN11OpenImageIO6v3_1_08farmhash10farmhashcc19CityHash128WithSeedEPKcmSt4pairImmE(ptr noundef %0, i64 noundef %1, i64 -4348849565147123417, i64 -5435081209227447693)
  br label %_ZN11OpenImageIO6v3_1_08farmhash7inlined14Fingerprint128EPKcm.exit

_ZN11OpenImageIO6v3_1_08farmhash7inlined14Fingerprint128EPKcm.exit: ; preds = %4, %12
  %.pn.i.i.i = phi { i64, i64 } [ %11, %4 ], [ %13, %12 ]
  ret { i64, i64 } %.pn.i.i.i
}